target datalayout = "e-m:e-p270:32:32-p271:32:32-p272:64:64-i64:64-i128:128-f80:128-n8:16:32:64-S128"
target triple = "x86_64-pc-linux-gnu"

%struct.hpdata_s = type { ptr, i64, i8, i8, i8, i8, i8, %struct.nstime_t, i8, i8, i8, i8, i8, %union.anon, %struct.anon.0, %struct.anon.1, i64, i64, [8 x i64], i64, [8 x i64] }
%struct.nstime_t = type { i64 }
%union.anon = type { %struct.hpdata_age_heap_link_t }
%struct.hpdata_age_heap_link_t = type { %struct.phn_link_s }
%struct.phn_link_s = type { ptr, ptr, ptr }
%struct.anon.0 = type { ptr, ptr }
%struct.anon.1 = type { ptr, ptr }

; Function Attrs: alwaysinline nounwind uwtable
define internal void @fb_visit_impl(ptr noundef %0, i64 noundef %1, ptr noundef %2, ptr noundef %3, i64 noundef %4, i64 noundef %5) #1 {
  %7 = alloca ptr, align 8
  %8 = alloca i64, align 8
  %9 = alloca ptr, align 8
  %10 = alloca ptr, align 8
  %11 = alloca i64, align 8
  %12 = alloca i64, align 8
  %13 = alloca i64, align 8
  %14 = alloca i64, align 8
  %15 = alloca i64, align 8
  %16 = alloca i64, align 8
  store ptr %0, ptr %7, align 8, !tbaa !40
  store i64 %1, ptr %8, align 8, !tbaa !13
  store ptr %2, ptr %9, align 8, !tbaa !3
  store ptr %3, ptr %10, align 8, !tbaa !3
  store i64 %4, ptr %11, align 8, !tbaa !13
  store i64 %5, ptr %12, align 8, !tbaa !13
  br label %17

17:                                               ; preds = %6
  br label %18

18:                                               ; preds = %17
  br label %19

19:                                               ; preds = %18
  br label %20

20:                                               ; preds = %19
  call void @llvm.lifetime.start.p0(i64 8, ptr %13) #7
  %21 = load i64, ptr %11, align 8, !tbaa !13
  %22 = udiv i64 %21, 64
  store i64 %22, ptr %13, align 8, !tbaa !13
  call void @llvm.lifetime.start.p0(i64 8, ptr %14) #7
  %23 = load i64, ptr %11, align 8, !tbaa !13
  %24 = urem i64 %23, 64
  store i64 %24, ptr %14, align 8, !tbaa !13
  call void @llvm.lifetime.start.p0(i64 8, ptr %15) #7
  %25 = load i64, ptr %14, align 8, !tbaa !13
  %26 = load i64, ptr %12, align 8, !tbaa !13
  %27 = add i64 %25, %26
  %28 = icmp ugt i64 %27, 64
  br i1 %28, label %29, label %32

29:                                               ; preds = %20
  %30 = load i64, ptr %14, align 8, !tbaa !13
  %31 = sub i64 64, %30
  br label %34

32:                                               ; preds = %20
  %33 = load i64, ptr %12, align 8, !tbaa !13
  br label %34

34:                                               ; preds = %32, %29
  %35 = phi i64 [ %31, %29 ], [ %33, %32 ]
  store i64 %35, ptr %15, align 8, !tbaa !13
  call void @llvm.lifetime.start.p0(i64 8, ptr %16) #7
  %36 = load i64, ptr %15, align 8, !tbaa !13
  %37 = sub i64 64, %36
  %38 = lshr i64 -1, %37
  %39 = load i64, ptr %14, align 8, !tbaa !13
  %40 = shl i64 %38, %39
  store i64 %40, ptr %16, align 8, !tbaa !13
  %41 = load ptr, ptr %9, align 8, !tbaa !3
  %42 = load ptr, ptr %10, align 8, !tbaa !3
  %43 = load ptr, ptr %7, align 8, !tbaa !40
  %44 = load i64, ptr %13, align 8, !tbaa !13
  %45 = getelementptr inbounds nuw i64, ptr %43, i64 %44
  %46 = load i64, ptr %16, align 8, !tbaa !13
  call void %41(ptr noundef %42, ptr noundef %45, i64 noundef %46)
  %47 = load i64, ptr %15, align 8, !tbaa !13
  %48 = load i64, ptr %12, align 8, !tbaa !13
  %49 = sub i64 %48, %47
  store i64 %49, ptr %12, align 8, !tbaa !13
  %50 = load i64, ptr %13, align 8, !tbaa !13
  %51 = add i64 %50, 1
  store i64 %51, ptr %13, align 8, !tbaa !13
  br label %52

52:                                               ; preds = %55, %34
  %53 = load i64, ptr %12, align 8, !tbaa !13
  %54 = icmp ugt i64 %53, 64
  br i1 %54, label %55, label %65

55:                                               ; preds = %52
  %56 = load ptr, ptr %9, align 8, !tbaa !3
  %57 = load ptr, ptr %10, align 8, !tbaa !3
  %58 = load ptr, ptr %7, align 8, !tbaa !40
  %59 = load i64, ptr %13, align 8, !tbaa !13
  %60 = getelementptr inbounds nuw i64, ptr %58, i64 %59
  call void %56(ptr noundef %57, ptr noundef %60, i64 noundef -1)
  %61 = load i64, ptr %12, align 8, !tbaa !13
  %62 = sub i64 %61, 64
  store i64 %62, ptr %12, align 8, !tbaa !13
  %63 = load i64, ptr %13, align 8, !tbaa !13
  %64 = add i64 %63, 1
  store i64 %64, ptr %13, align 8, !tbaa !13
  br label %52

65:                                               ; preds = %52
  %66 = load i64, ptr %12, align 8, !tbaa !13
  %67 = icmp ne i64 %66, 0
  br i1 %67, label %68, label %78

68:                                               ; preds = %65
  %69 = load i64, ptr %12, align 8, !tbaa !13
  %70 = sub i64 64, %69
  %71 = lshr i64 -1, %70
  store i64 %71, ptr %16, align 8, !tbaa !13
  %72 = load ptr, ptr %9, align 8, !tbaa !3
  %73 = load ptr, ptr %10, align 8, !tbaa !3
  %74 = load ptr, ptr %7, align 8, !tbaa !40
  %75 = load i64, ptr %13, align 8, !tbaa !13
  %76 = getelementptr inbounds nuw i64, ptr %74, i64 %75
  %77 = load i64, ptr %16, align 8, !tbaa !13
  call void %72(ptr noundef %73, ptr noundef %76, i64 noundef %77)
  br label %78

78:                                               ; preds = %68, %65
  call void @llvm.lifetime.end.p0(i64 8, ptr %16) #7
  call void @llvm.lifetime.end.p0(i64 8, ptr %15) #7
  call void @llvm.lifetime.end.p0(i64 8, ptr %14) #7
  call void @llvm.lifetime.end.p0(i64 8, ptr %13) #7
  ret void
}

; Function Attrs: inlinehint nounwind uwtable
define internal void @fb_set_range(ptr noundef %0, i64 noundef %1, i64 noundef %2, i64 noundef %3) #3 {
  %5 = alloca ptr, align 8
  %6 = alloca i64, align 8
  %7 = alloca i64, align 8
  %8 = alloca i64, align 8
  %9 = alloca i8, align 1
  store ptr %0, ptr %5, align 8, !tbaa !40
  store i64 %1, ptr %6, align 8, !tbaa !13
  store i64 %2, ptr %7, align 8, !tbaa !13
  store i64 %3, ptr %8, align 8, !tbaa !13
  call void @llvm.lifetime.start.p0(i64 1, ptr %9) #7
  store i8 1, ptr %9, align 1, !tbaa !18
  %10 = load ptr, ptr %5, align 8, !tbaa !40
  %11 = load i64, ptr %6, align 8, !tbaa !13
  %12 = load i64, ptr %7, align 8, !tbaa !13
  %13 = load i64, ptr %8, align 8, !tbaa !13
  call void @fb_visit_impl(ptr noundef %10, i64 noundef %11, ptr noundef @fb_assign_visitor, ptr noundef %9, i64 noundef %12, i64 noundef %13)
  call void @llvm.lifetime.end.p0(i64 1, ptr %9) #7
  ret void
}

; Function Attrs: inlinehint nounwind uwtable
define internal void @hpdata_assert_consistent(ptr noundef %0) #3 {
  %2 = alloca ptr, align 8
  store ptr %0, ptr %2, align 8, !tbaa !14
  br label %3

3:                                                ; preds = %1
  br label %4

4:                                                ; preds = %3
  ret void
}

; Function Attrs: nounwind uwtable
define void @duckdb_je_hpdata_hugify(ptr noundef %0) #0 {
  %2 = alloca ptr, align 8
  store ptr %0, ptr %2, align 8, !tbaa !14
  %3 = load ptr, ptr %2, align 8, !tbaa !14
  call void @hpdata_assert_consistent(ptr noundef %3)
  %4 = load ptr, ptr %2, align 8, !tbaa !14
  %5 = getelementptr inbounds nuw %struct.hpdata_s, ptr %4, i32 0, i32 2
  store i8 1, ptr %5, align 8, !tbaa !22
  %6 = load ptr, ptr %2, align 8, !tbaa !14
  %7 = getelementptr inbounds nuw %struct.hpdata_s, ptr %6, i32 0, i32 20
  %8 = getelementptr inbounds [8 x i64], ptr %7, i64 0, i64 0
  call void @fb_set_range(ptr noundef %8, i64 noundef 512, i64 noundef 0, i64 noundef 512)
  %9 = load ptr, ptr %2, align 8, !tbaa !14
  %10 = getelementptr inbounds nuw %struct.hpdata_s, ptr %9, i32 0, i32 19
  store i64 512, ptr %10, align 8, !tbaa !36
  %11 = load ptr, ptr %2, align 8, !tbaa !14
  call void @hpdata_assert_consistent(ptr noundef %11)
  ret void
}